target datalayout = "e-m:e-p270:32:32-p271:32:32-p272:64:64-i64:64-i128:128-f80:128-n8:16:32:64-S128"
target triple = "x86_64-pc-linux-gnu"

%"struct.pkpy::Type" = type { i16 }
%"struct.pkpy::PyObject" = type { ptr, i8, i8, %"struct.pkpy::Type", ptr }
%class.anon.206 = type { i8 }
%"struct.pkpy::Py_.387" = type { %"struct.pkpy::PyObject", %"struct.pkpy::VoidP" }
%"struct.pkpy::VoidP" = type { ptr }

; Function Attrs: mustprogress uwtable
define linkonce_odr noundef zeroext i16 @_ZN4pkpy7py_castItEET_PNS_2VMEPNS_8PyObjectE(ptr noundef %0, ptr noundef %1) #4 comdat {
  %3 = alloca ptr, align 8
  %4 = alloca ptr, align 8
  store ptr %0, ptr %3, align 8
  store ptr %1, ptr %4, align 8
  %5 = load ptr, ptr %3, align 8
  %6 = load ptr, ptr %4, align 8
  %7 = call noundef zeroext i16 @_ZN4pkpy18_py_cast__internalItLb1EEET_PNS_2VMEPNS_8PyObjectE(ptr noundef %5, ptr noundef %6)
  ret i16 %7
}

; Function Attrs: mustprogress uwtable
define linkonce_odr noundef i64 @_ZN4pkpy7py_castIlEET_PNS_2VMEPNS_8PyObjectE(ptr noundef %0, ptr noundef %1) #4 comdat {
  %3 = alloca ptr, align 8
  %4 = alloca ptr, align 8
  store ptr %0, ptr %3, align 8
  store ptr %1, ptr %4, align 8
  %5 = load ptr, ptr %3, align 8
  %6 = load ptr, ptr %4, align 8
  %7 = call noundef i64 @_ZN4pkpy18_py_cast__internalIlLb1EEET_PNS_2VMEPNS_8PyObjectE(ptr noundef %5, ptr noundef %6)
  ret i64 %7
}

; Function Attrs: mustprogress uwtable
define internal void @"_ZZN4pkpy12add_module_cEPNS_2VMEENK4$_35clES1_PNS_8PyObjectES4_S4_"(ptr noundef nonnull align 1 dereferenceable(1) %0, ptr noundef %1, ptr noundef %2, ptr noundef %3, ptr noundef %4) #4 align 2 {
  %6 = alloca ptr, align 8
  %7 = alloca ptr, align 8
  %8 = alloca ptr, align 8
  %9 = alloca ptr, align 8
  %10 = alloca ptr, align 8
  %11 = alloca ptr, align 8
  %12 = alloca i64, align 8
  %13 = alloca ptr, align 8
  store ptr %0, ptr %6, align 8
  store ptr %1, ptr %7, align 8
  store ptr %2, ptr %8, align 8
  store ptr %3, ptr %9, align 8
  store ptr %4, ptr %10, align 8
  %14 = load ptr, ptr %8, align 8
  %15 = getelementptr inbounds %"struct.pkpy::Py_.387", ptr %14, i32 0, i32 1
  store ptr %15, ptr %11, align 8
  %16 = load ptr, ptr %7, align 8
  %17 = load ptr, ptr %9, align 8
  %18 = call noundef i64 @_ZN4pkpy7py_castIlEET_PNS_2VMEPNS_8PyObjectE(ptr noundef %16, ptr noundef %17)
  store i64 %18, ptr %12, align 8
  %19 = load ptr, ptr %11, align 8
  %20 = getelementptr inbounds %"struct.pkpy::VoidP", ptr %19, i32 0, i32 0
  %21 = load ptr, ptr %20, align 8
  store ptr %21, ptr %13, align 8
  %22 = load ptr, ptr %7, align 8
  %23 = load ptr, ptr %10, align 8
  %24 = call noundef zeroext i16 @_ZN4pkpy7py_castItEET_PNS_2VMEPNS_8PyObjectE(ptr noundef %22, ptr noundef %23)
  %25 = load ptr, ptr %13, align 8
  %26 = load i64, ptr %12, align 8
  %27 = getelementptr inbounds i16, ptr %25, i64 %26
  store i16 %24, ptr %27, align 2
  ret void
}

; Function Attrs: mustprogress uwtable
define internal void @"_ZZN4pkpy12add_module_cEPNS_2VMEEN4$_358__invokeES1_PNS_8PyObjectES4_S4_"(ptr noundef %0, ptr noundef %1, ptr noundef %2, ptr noundef %3) #4 align 2 {
  %5 = alloca ptr, align 8
  %6 = alloca ptr, align 8
  %7 = alloca ptr, align 8
  %8 = alloca ptr, align 8
  %9 = alloca %class.anon.206, align 1
  store ptr %0, ptr %5, align 8
  store ptr %1, ptr %6, align 8
  store ptr %2, ptr %7, align 8
  store ptr %3, ptr %8, align 8
  %10 = load ptr, ptr %5, align 8
  %11 = load ptr, ptr %6, align 8
  %12 = load ptr, ptr %7, align 8
  %13 = load ptr, ptr %8, align 8
  call void @"_ZZN4pkpy12add_module_cEPNS_2VMEENK4$_35clES1_PNS_8PyObjectES4_S4_"(ptr noundef nonnull align 1 dereferenceable(1) %9, ptr noundef %10, ptr noundef %11, ptr noundef %12, ptr noundef %13)
  ret void
}