; Function Attrs: mustprogress uwtable
define internal void @"_ZZN4pkpy12add_module_cEPNS_2VMEEN4$_358__invokeES1_PNS_8PyObjectES4_S4_"(ptr noundef %0, ptr nocapture noundef readonly %1, ptr noundef %2, ptr noundef %3) #3 align 2 {
  %5 = getelementptr inbounds i8, ptr %1, i64 24
  %6 = tail call noundef i64 @_ZN4pkpy18_py_cast__internalIlLb1EEET_PNS_2VMEPNS_8PyObjectE(ptr noundef %0, ptr noundef %2)
  %7 = load ptr, ptr %5, align 8
  %8 = tail call noundef zeroext i16 @_ZN4pkpy18_py_cast__internalItLb1EEET_PNS_2VMEPNS_8PyObjectE(ptr noundef %0, ptr noundef %3)
  %9 = getelementptr inbounds i16, ptr %7, i64 %6
  store i16 %8, ptr %9, align 2
  ret void
}